target datalayout = "e-m:e-p270:32:32-p271:32:32-p272:64:64-i64:64-i128:128-f80:128-n8:16:32:64-S128"
target triple = "x86_64-pc-linux-gnu"

%struct.SDL_BlitInfo = type { ptr, ptr, i32, i32, i32, i32, ptr, ptr, i32, i32, i32, i32, ptr, ptr, ptr, ptr, ptr, ptr, i32, i32, i8, i8, i8, i8 }

; Function Attrs: nounwind uwtable
define internal void @SDL_Blit_XRGB8888_XBGR8888_Blend(ptr noundef %0) #0 {
  %2 = alloca ptr, align 8
  %3 = alloca i32, align 4
  %4 = alloca i32, align 4
  %5 = alloca i32, align 4
  %6 = alloca i32, align 4
  %7 = alloca i32, align 4
  %8 = alloca i32, align 4
  %9 = alloca i32, align 4
  %10 = alloca i32, align 4
  %11 = alloca i32, align 4
  %12 = alloca ptr, align 8
  %13 = alloca ptr, align 8
  %14 = alloca i32, align 4
  %15 = alloca i16, align 2
  %16 = alloca i16, align 2
  %17 = alloca i16, align 2
  %18 = alloca i16, align 2
  %19 = alloca i16, align 2
  %20 = alloca i16, align 2
  store ptr %0, ptr %2, align 8
  call void @llvm.lifetime.start.p0(i64 4, ptr %3) #2
  %21 = load ptr, ptr %2, align 8
  %22 = getelementptr inbounds nuw %struct.SDL_BlitInfo, ptr %21, i32 0, i32 18
  %23 = load i32, ptr %22, align 8
  store i32 %23, ptr %3, align 4
  call void @llvm.lifetime.start.p0(i64 4, ptr %4) #2
  call void @llvm.lifetime.start.p0(i64 4, ptr %5) #2
  call void @llvm.lifetime.start.p0(i64 4, ptr %6) #2
  call void @llvm.lifetime.start.p0(i64 4, ptr %7) #2
  call void @llvm.lifetime.start.p0(i64 4, ptr %8) #2
  call void @llvm.lifetime.start.p0(i64 4, ptr %9) #2
  call void @llvm.lifetime.start.p0(i64 4, ptr %10) #2
  call void @llvm.lifetime.start.p0(i64 4, ptr %11) #2
  br label %24

24:                                               ; preds = %245, %1
  %25 = load ptr, ptr %2, align 8
  %26 = getelementptr inbounds nuw %struct.SDL_BlitInfo, ptr %25, i32 0, i32 9
  %27 = load i32, ptr %26, align 4
  %28 = add nsw i32 %27, -1
  store i32 %28, ptr %26, align 4
  %29 = icmp ne i32 %27, 0
  br i1 %29, label %30, label %262

30:                                               ; preds = %24
  call void @llvm.lifetime.start.p0(i64 8, ptr %12) #2
  %31 = load ptr, ptr %2, align 8
  %32 = getelementptr inbounds nuw %struct.SDL_BlitInfo, ptr %31, i32 0, i32 1
  %33 = load ptr, ptr %32, align 8
  store ptr %33, ptr %12, align 8
  call void @llvm.lifetime.start.p0(i64 8, ptr %13) #2
  %34 = load ptr, ptr %2, align 8
  %35 = getelementptr inbounds nuw %struct.SDL_BlitInfo, ptr %34, i32 0, i32 7
  %36 = load ptr, ptr %35, align 8
  store ptr %36, ptr %13, align 8
  call void @llvm.lifetime.start.p0(i64 4, ptr %14) #2
  %37 = load ptr, ptr %2, align 8
  %38 = getelementptr inbounds nuw %struct.SDL_BlitInfo, ptr %37, i32 0, i32 8
  %39 = load i32, ptr %38, align 8
  store i32 %39, ptr %14, align 4
  br label %40

40:                                               ; preds = %231, %30
  %41 = load i32, ptr %14, align 4
  %42 = add nsw i32 %41, -1
  store i32 %42, ptr %14, align 4
  %43 = icmp ne i32 %41, 0
  br i1 %43, label %44, label %245

44:                                               ; preds = %40
  %45 = load ptr, ptr %12, align 8
  %46 = load i32, ptr %45, align 4
  store i32 %46, ptr %4, align 4
  %47 = load i32, ptr %4, align 4
  %48 = lshr i32 %47, 16
  %49 = trunc i32 %48 to i8
  %50 = zext i8 %49 to i32
  store i32 %50, ptr %5, align 4
  %51 = load i32, ptr %4, align 4
  %52 = lshr i32 %51, 8
  %53 = trunc i32 %52 to i8
  %54 = zext i8 %53 to i32
  store i32 %54, ptr %6, align 4
  %55 = load i32, ptr %4, align 4
  %56 = trunc i32 %55 to i8
  %57 = zext i8 %56 to i32
  store i32 %57, ptr %7, align 4
  %58 = load ptr, ptr %13, align 8
  %59 = load i32, ptr %58, align 4
  store i32 %59, ptr %8, align 4
  %60 = load i32, ptr %8, align 4
  %61 = lshr i32 %60, 16
  %62 = trunc i32 %61 to i8
  %63 = zext i8 %62 to i32
  store i32 %63, ptr %11, align 4
  %64 = load i32, ptr %8, align 4
  %65 = lshr i32 %64, 8
  %66 = trunc i32 %65 to i8
  %67 = zext i8 %66 to i32
  store i32 %67, ptr %10, align 4
  %68 = load i32, ptr %8, align 4
  %69 = trunc i32 %68 to i8
  %70 = zext i8 %69 to i32
  store i32 %70, ptr %9, align 4
  %71 = load i32, ptr %3, align 4
  %72 = and i32 %71, 1008
  switch i32 %72, label %231 [
    i32 16, label %73
    i32 32, label %77
    i32 64, label %81
    i32 128, label %81
    i32 256, label %103
    i32 512, label %167
  ]

73:                                               ; preds = %44
  %74 = load i32, ptr %5, align 4
  store i32 %74, ptr %9, align 4
  %75 = load i32, ptr %6, align 4
  store i32 %75, ptr %10, align 4
  %76 = load i32, ptr %7, align 4
  store i32 %76, ptr %11, align 4
  br label %231

77:                                               ; preds = %44
  %78 = load i32, ptr %5, align 4
  store i32 %78, ptr %9, align 4
  %79 = load i32, ptr %6, align 4
  store i32 %79, ptr %10, align 4
  %80 = load i32, ptr %7, align 4
  store i32 %80, ptr %11, align 4
  br label %231

81:                                               ; preds = %44, %44
  %82 = load i32, ptr %5, align 4
  %83 = load i32, ptr %9, align 4
  %84 = add i32 %82, %83
  store i32 %84, ptr %9, align 4
  %85 = load i32, ptr %9, align 4
  %86 = icmp ugt i32 %85, 255
  br i1 %86, label %87, label %88

87:                                               ; preds = %81
  store i32 255, ptr %9, align 4
  br label %88

88:                                               ; preds = %87, %81
  %89 = load i32, ptr %6, align 4
  %90 = load i32, ptr %10, align 4
  %91 = add i32 %89, %90
  store i32 %91, ptr %10, align 4
  %92 = load i32, ptr %10, align 4
  %93 = icmp ugt i32 %92, 255
  br i1 %93, label %94, label %95

94:                                               ; preds = %88
  store i32 255, ptr %10, align 4
  br label %95

95:                                               ; preds = %94, %88
  %96 = load i32, ptr %7, align 4
  %97 = load i32, ptr %11, align 4
  %98 = add i32 %96, %97
  store i32 %98, ptr %11, align 4
  %99 = load i32, ptr %11, align 4
  %100 = icmp ugt i32 %99, 255
  br i1 %100, label %101, label %102

101:                                              ; preds = %95
  store i32 255, ptr %11, align 4
  br label %102

102:                                              ; preds = %101, %95
  br label %231

103:                                              ; preds = %44
  br label %104

104:                                              ; preds = %103
  call void @llvm.lifetime.start.p0(i64 2, ptr %15) #2
  %105 = load i32, ptr %5, align 4
  %106 = load i32, ptr %9, align 4
  %107 = mul i32 %105, %106
  %108 = trunc i32 %107 to i16
  store i16 %108, ptr %15, align 2
  %109 = load i16, ptr %15, align 2
  %110 = zext i16 %109 to i32
  %111 = add i32 %110, 1
  %112 = trunc i32 %111 to i16
  store i16 %112, ptr %15, align 2
  %113 = load i16, ptr %15, align 2
  %114 = zext i16 %113 to i32
  %115 = ashr i32 %114, 8
  %116 = load i16, ptr %15, align 2
  %117 = zext i16 %116 to i32
  %118 = add nsw i32 %117, %115
  %119 = trunc i32 %118 to i16
  store i16 %119, ptr %15, align 2
  %120 = load i16, ptr %15, align 2
  %121 = zext i16 %120 to i32
  %122 = ashr i32 %121, 8
  store i32 %122, ptr %9, align 4
  call void @llvm.lifetime.end.p0(i64 2, ptr %15) #2
  br label %123

123:                                              ; preds = %104
  br label %124

124:                                              ; preds = %123
  br label %125

125:                                              ; preds = %124
  call void @llvm.lifetime.start.p0(i64 2, ptr %16) #2
  %126 = load i32, ptr %6, align 4
  %127 = load i32, ptr %10, align 4
  %128 = mul i32 %126, %127
  %129 = trunc i32 %128 to i16
  store i16 %129, ptr %16, align 2
  %130 = load i16, ptr %16, align 2
  %131 = zext i16 %130 to i32
  %132 = add i32 %131, 1
  %133 = trunc i32 %132 to i16
  store i16 %133, ptr %16, align 2
  %134 = load i16, ptr %16, align 2
  %135 = zext i16 %134 to i32
  %136 = ashr i32 %135, 8
  %137 = load i16, ptr %16, align 2
  %138 = zext i16 %137 to i32
  %139 = add nsw i32 %138, %136
  %140 = trunc i32 %139 to i16
  store i16 %140, ptr %16, align 2
  %141 = load i16, ptr %16, align 2
  %142 = zext i16 %141 to i32
  %143 = ashr i32 %142, 8
  store i32 %143, ptr %10, align 4
  call void @llvm.lifetime.end.p0(i64 2, ptr %16) #2
  br label %144

144:                                              ; preds = %125
  br label %145

145:                                              ; preds = %144
  br label %146

146:                                              ; preds = %145
  call void @llvm.lifetime.start.p0(i64 2, ptr %17) #2
  %147 = load i32, ptr %7, align 4
  %148 = load i32, ptr %11, align 4
  %149 = mul i32 %147, %148
  %150 = trunc i32 %149 to i16
  store i16 %150, ptr %17, align 2
  %151 = load i16, ptr %17, align 2
  %152 = zext i16 %151 to i32
  %153 = add i32 %152, 1
  %154 = trunc i32 %153 to i16
  store i16 %154, ptr %17, align 2
  %155 = load i16, ptr %17, align 2
  %156 = zext i16 %155 to i32
  %157 = ashr i32 %156, 8
  %158 = load i16, ptr %17, align 2
  %159 = zext i16 %158 to i32
  %160 = add nsw i32 %159, %157
  %161 = trunc i32 %160 to i16
  store i16 %161, ptr %17, align 2
  %162 = load i16, ptr %17, align 2
  %163 = zext i16 %162 to i32
  %164 = ashr i32 %163, 8
  store i32 %164, ptr %11, align 4
  call void @llvm.lifetime.end.p0(i64 2, ptr %17) #2
  br label %165

165:                                              ; preds = %146
  br label %166

166:                                              ; preds = %165
  br label %231

167:                                              ; preds = %44
  br label %168

168:                                              ; preds = %167
  call void @llvm.lifetime.start.p0(i64 2, ptr %18) #2
  %169 = load i32, ptr %5, align 4
  %170 = load i32, ptr %9, align 4
  %171 = mul i32 %169, %170
  %172 = trunc i32 %171 to i16
  store i16 %172, ptr %18, align 2
  %173 = load i16, ptr %18, align 2
  %174 = zext i16 %173 to i32
  %175 = add i32 %174, 1
  %176 = trunc i32 %175 to i16
  store i16 %176, ptr %18, align 2
  %177 = load i16, ptr %18, align 2
  %178 = zext i16 %177 to i32
  %179 = ashr i32 %178, 8
  %180 = load i16, ptr %18, align 2
  %181 = zext i16 %180 to i32
  %182 = add nsw i32 %181, %179
  %183 = trunc i32 %182 to i16
  store i16 %183, ptr %18, align 2
  %184 = load i16, ptr %18, align 2
  %185 = zext i16 %184 to i32
  %186 = ashr i32 %185, 8
  store i32 %186, ptr %9, align 4
  call void @llvm.lifetime.end.p0(i64 2, ptr %18) #2
  br label %187

187:                                              ; preds = %168
  br label %188

188:                                              ; preds = %187
  br label %189

189:                                              ; preds = %188
  call void @llvm.lifetime.start.p0(i64 2, ptr %19) #2
  %190 = load i32, ptr %6, align 4
  %191 = load i32, ptr %10, align 4
  %192 = mul i32 %190, %191
  %193 = trunc i32 %192 to i16
  store i16 %193, ptr %19, align 2
  %194 = load i16, ptr %19, align 2
  %195 = zext i16 %194 to i32
  %196 = add i32 %195, 1
  %197 = trunc i32 %196 to i16
  store i16 %197, ptr %19, align 2
  %198 = load i16, ptr %19, align 2
  %199 = zext i16 %198 to i32
  %200 = ashr i32 %199, 8
  %201 = load i16, ptr %19, align 2
  %202 = zext i16 %201 to i32
  %203 = add nsw i32 %202, %200
  %204 = trunc i32 %203 to i16
  store i16 %204, ptr %19, align 2
  %205 = load i16, ptr %19, align 2
  %206 = zext i16 %205 to i32
  %207 = ashr i32 %206, 8
  store i32 %207, ptr %10, align 4
  call void @llvm.lifetime.end.p0(i64 2, ptr %19) #2
  br label %208

208:                                              ; preds = %189
  br label %209

209:                                              ; preds = %208
  br label %210

210:                                              ; preds = %209
  call void @llvm.lifetime.start.p0(i64 2, ptr %20) #2
  %211 = load i32, ptr %7, align 4
  %212 = load i32, ptr %11, align 4
  %213 = mul i32 %211, %212
  %214 = trunc i32 %213 to i16
  store i16 %214, ptr %20, align 2
  %215 = load i16, ptr %20, align 2
  %216 = zext i16 %215 to i32
  %217 = add i32 %216, 1
  %218 = trunc i32 %217 to i16
  store i16 %218, ptr %20, align 2
  %219 = load i16, ptr %20, align 2
  %220 = zext i16 %219 to i32
  %221 = ashr i32 %220, 8
  %222 = load i16, ptr %20, align 2
  %223 = zext i16 %222 to i32
  %224 = add nsw i32 %223, %221
  %225 = trunc i32 %224 to i16
  store i16 %225, ptr %20, align 2
  %226 = load i16, ptr %20, align 2
  %227 = zext i16 %226 to i32
  %228 = ashr i32 %227, 8
  store i32 %228, ptr %11, align 4
  call void @llvm.lifetime.end.p0(i64 2, ptr %20) #2
  br label %229

229:                                              ; preds = %210
  br label %230

230:                                              ; preds = %229
  br label %231

231:                                              ; preds = %44, %230, %166, %102, %77, %73
  %232 = load i32, ptr %11, align 4
  %233 = shl i32 %232, 16
  %234 = load i32, ptr %10, align 4
  %235 = shl i32 %234, 8
  %236 = or i32 %233, %235
  %237 = load i32, ptr %9, align 4
  %238 = or i32 %236, %237
  store i32 %238, ptr %8, align 4
  %239 = load i32, ptr %8, align 4
  %240 = load ptr, ptr %13, align 8
  store i32 %239, ptr %240, align 4
  %241 = load ptr, ptr %12, align 8
  %242 = getelementptr inbounds nuw i32, ptr %241, i32 1
  store ptr %242, ptr %12, align 8
  %243 = load ptr, ptr %13, align 8
  %244 = getelementptr inbounds nuw i32, ptr %243, i32 1
  store ptr %244, ptr %13, align 8
  br label %40, !llvm.loop !20

245:                                              ; preds = %40
  %246 = load ptr, ptr %2, align 8
  %247 = getelementptr inbounds nuw %struct.SDL_BlitInfo, ptr %246, i32 0, i32 4
  %248 = load i32, ptr %247, align 8
  %249 = load ptr, ptr %2, align 8
  %250 = getelementptr inbounds nuw %struct.SDL_BlitInfo, ptr %249, i32 0, i32 1
  %251 = load ptr, ptr %250, align 8
  %252 = sext i32 %248 to i64
  %253 = getelementptr inbounds i8, ptr %251, i64 %252
  store ptr %253, ptr %250, align 8
  %254 = load ptr, ptr %2, align 8
  %255 = getelementptr inbounds nuw %struct.SDL_BlitInfo, ptr %254, i32 0, i32 10
  %256 = load i32, ptr %255, align 8
  %257 = load ptr, ptr %2, align 8
  %258 = getelementptr inbounds nuw %struct.SDL_BlitInfo, ptr %257, i32 0, i32 7
  %259 = load ptr, ptr %258, align 8
  %260 = sext i32 %256 to i64
  %261 = getelementptr inbounds i8, ptr %259, i64 %260
  store ptr %261, ptr %258, align 8
  call void @llvm.lifetime.end.p0(i64 4, ptr %14) #2
  call void @llvm.lifetime.end.p0(i64 8, ptr %13) #2
  call void @llvm.lifetime.end.p0(i64 8, ptr %12) #2
  br label %24, !llvm.loop !21

262:                                              ; preds = %24
  call void @llvm.lifetime.end.p0(i64 4, ptr %11) #2
  call void @llvm.lifetime.end.p0(i64 4, ptr %10) #2
  call void @llvm.lifetime.end.p0(i64 4, ptr %9) #2
  call void @llvm.lifetime.end.p0(i64 4, ptr %8) #2
  call void @llvm.lifetime.end.p0(i64 4, ptr %7) #2
  call void @llvm.lifetime.end.p0(i64 4, ptr %6) #2
  call void @llvm.lifetime.end.p0(i64 4, ptr %5) #2
  call void @llvm.lifetime.end.p0(i64 4, ptr %4) #2
  call void @llvm.lifetime.end.p0(i64 4, ptr %3) #2
  ret void
}