; Function Attrs: nofree norecurse nosync nounwind memory(readwrite, inaccessiblemem: none) uwtable
define internal void @SDL_Blit_XRGB8888_XBGR8888_Blend(ptr noundef captures(none) %0) #0 {
  %2 = getelementptr inbounds nuw i8, ptr %0, i64 112
  %3 = load i32, ptr %2, align 8
  %4 = getelementptr inbounds nuw i8, ptr %0, i64 52
  %5 = load i32, ptr %4, align 4
  %6 = add nsw i32 %5, -1
  store i32 %6, ptr %4, align 4
  %.not87 = icmp eq i32 %5, 0
  br i1 %.not87, label %._crit_edge90, label %.lr.ph89

.lr.ph89:                                         ; preds = %1
  %7 = getelementptr inbounds nuw i8, ptr %0, i64 8
  %8 = getelementptr inbounds nuw i8, ptr %0, i64 40
  %9 = getelementptr inbounds nuw i8, ptr %0, i64 48
  %10 = and i32 %3, 1008
  %11 = getelementptr inbounds nuw i8, ptr %0, i64 24
  %12 = getelementptr inbounds nuw i8, ptr %0, i64 56
  %13 = load i32, ptr %9, align 8
  %14 = icmp eq i32 %13, 0
  br i1 %14, label %.lr.ph89.split.us, label %.lr.ph89.split.preheader

.lr.ph89.split.preheader:                         ; preds = %.lr.ph89
  %.pre = load ptr, ptr %7, align 8
  %.pre98 = load ptr, ptr %8, align 8
  br label %.lr.ph89.split

.lr.ph89.split.us:                                ; preds = %.lr.ph89
  %15 = load i32, ptr %11, align 8
  %16 = sext i32 %15 to i64
  %17 = load i32, ptr %12, align 8
  %18 = sext i32 %17 to i64
  %.promoted = load ptr, ptr %7, align 8
  %.promoted91 = load ptr, ptr %8, align 8
  %19 = zext i32 %5 to i64
  %20 = mul nsw i64 %19, %16
  %scevgep = getelementptr i8, ptr %.promoted, i64 %20
  %21 = mul nsw i64 %19, %18
  %scevgep97 = getelementptr i8, ptr %.promoted91, i64 %21
  store ptr %scevgep, ptr %7, align 8
  store ptr %scevgep97, ptr %8, align 8
  store i32 -1, ptr %4, align 4
  br label %._crit_edge90

.lr.ph89.splitthread-pre-split:                   ; preds = %._crit_edge
  %.pr = load i32, ptr %9, align 8
  br label %.lr.ph89.split

.lr.ph89.split:                                   ; preds = %.lr.ph89.splitthread-pre-split, %.lr.ph89.split.preheader
  %22 = phi i32 [ %.pr, %.lr.ph89.splitthread-pre-split ], [ %13, %.lr.ph89.split.preheader ]
  %23 = phi i32 [ %92, %.lr.ph89.splitthread-pre-split ], [ %6, %.lr.ph89.split.preheader ]
  %24 = phi ptr [ %91, %.lr.ph89.splitthread-pre-split ], [ %.pre98, %.lr.ph89.split.preheader ]
  %25 = phi ptr [ %88, %.lr.ph89.splitthread-pre-split ], [ %.pre, %.lr.ph89.split.preheader ]
  %.not8384 = icmp eq i32 %22, 0
  br i1 %.not8384, label %._crit_edge, label %.lr.ph

.lr.ph:                                           ; preds = %.lr.ph89.split, %76
  %.in = phi i32 [ %26, %76 ], [ %22, %.lr.ph89.split ]
  %.08086 = phi ptr [ %81, %76 ], [ %25, %.lr.ph89.split ]
  %.08185 = phi ptr [ %82, %76 ], [ %24, %.lr.ph89.split ]
  %26 = add nsw i32 %.in, -1
  %27 = load i32, ptr %.08086, align 4
  %28 = lshr i32 %27, 16
  %29 = and i32 %28, 255
  %30 = lshr i32 %27, 8
  %31 = and i32 %30, 255
  %32 = and i32 %27, 255
  %33 = load i32, ptr %.08185, align 4
  %34 = lshr i32 %33, 16
  %35 = and i32 %34, 255
  %36 = lshr i32 %33, 8
  %37 = and i32 %36, 255
  %38 = and i32 %33, 255
  switch i32 %10, label %76 [
    i32 16, label %39
    i32 32, label %39
    i32 64, label %40
    i32 128, label %40
    i32 256, label %44
    i32 512, label %60
  ]

39:                                               ; preds = %.lr.ph, %.lr.ph
  br label %76

40:                                               ; preds = %.lr.ph, %.lr.ph
  %41 = add nuw nsw i32 %29, %38
  %spec.store.select = tail call i32 @llvm.umin.i32(i32 %41, i32 255)
  %42 = add nuw nsw i32 %37, %31
  %spec.store.select2 = tail call i32 @llvm.umin.i32(i32 %42, i32 255)
  %43 = add nuw nsw i32 %35, %32
  %spec.store.select1 = tail call i32 @llvm.umin.i32(i32 %43, i32 255)
  br label %76

44:                                               ; preds = %.lr.ph
  %45 = mul nuw nsw i32 %29, %38
  %46 = add nuw nsw i32 %45, 1
  %47 = lshr i32 %46, 8
  %48 = add nuw nsw i32 %47, %46
  %49 = lshr i32 %48, 8
  %50 = mul nuw nsw i32 %37, %31
  %51 = add nuw nsw i32 %50, 1
  %52 = lshr i32 %51, 8
  %53 = add nuw nsw i32 %52, %51
  %54 = lshr i32 %53, 8
  %55 = mul nuw nsw i32 %35, %32
  %56 = add nuw nsw i32 %55, 1
  %57 = lshr i32 %56, 8
  %58 = add nuw nsw i32 %57, %56
  %59 = lshr i32 %58, 8
  br label %76

60:                                               ; preds = %.lr.ph
  %61 = mul nuw nsw i32 %29, %38
  %62 = add nuw nsw i32 %61, 1
  %63 = lshr i32 %62, 8
  %64 = add nuw nsw i32 %63, %62
  %65 = lshr i32 %64, 8
  %66 = mul nuw nsw i32 %37, %31
  %67 = add nuw nsw i32 %66, 1
  %68 = lshr i32 %67, 8
  %69 = add nuw nsw i32 %68, %67
  %70 = lshr i32 %69, 8
  %71 = mul nuw nsw i32 %35, %32
  %72 = add nuw nsw i32 %71, 1
  %73 = lshr i32 %72, 8
  %74 = add nuw nsw i32 %73, %72
  %75 = lshr i32 %74, 8
  br label %76

76:                                               ; preds = %60, %44, %40, %39, %.lr.ph
  %.079 = phi i32 [ %35, %.lr.ph ], [ %75, %60 ], [ %59, %44 ], [ %spec.store.select1, %40 ], [ %32, %39 ]
  %.078 = phi i32 [ %37, %.lr.ph ], [ %70, %60 ], [ %54, %44 ], [ %spec.store.select2, %40 ], [ %31, %39 ]
  %.0 = phi i32 [ %38, %.lr.ph ], [ %65, %60 ], [ %49, %44 ], [ %spec.store.select, %40 ], [ %29, %39 ]
  %77 = shl nuw nsw i32 %.079, 16
  %78 = shl nuw nsw i32 %.078, 8
  %79 = add nuw nsw i32 %78, %77
  %80 = add nuw nsw i32 %79, %.0
  store i32 %80, ptr %.08185, align 4
  %81 = getelementptr inbounds nuw i8, ptr %.08086, i64 4
  %82 = getelementptr inbounds nuw i8, ptr %.08185, i64 4
  %.not83 = icmp eq i32 %26, 0
  br i1 %.not83, label %._crit_edge.loopexit, label %.lr.ph, !llvm.loop !21

._crit_edge.loopexit:                             ; preds = %76
  %.pre99 = load ptr, ptr %7, align 8
  %.pre100 = load ptr, ptr %8, align 8
  %.pre101 = load i32, ptr %4, align 4
  br label %._crit_edge

._crit_edge:                                      ; preds = %._crit_edge.loopexit, %.lr.ph89.split
  %83 = phi i32 [ %.pre101, %._crit_edge.loopexit ], [ %23, %.lr.ph89.split ]
  %84 = phi ptr [ %.pre100, %._crit_edge.loopexit ], [ %24, %.lr.ph89.split ]
  %85 = phi ptr [ %.pre99, %._crit_edge.loopexit ], [ %25, %.lr.ph89.split ]
  %86 = load i32, ptr %11, align 8
  %87 = sext i32 %86 to i64
  %88 = getelementptr inbounds i8, ptr %85, i64 %87
  store ptr %88, ptr %7, align 8
  %89 = load i32, ptr %12, align 8
  %90 = sext i32 %89 to i64
  %91 = getelementptr inbounds i8, ptr %84, i64 %90
  store ptr %91, ptr %8, align 8
  %92 = add nsw i32 %83, -1
  store i32 %92, ptr %4, align 4
  %.not = icmp eq i32 %83, 0
  br i1 %.not, label %._crit_edge90, label %.lr.ph89.splitthread-pre-split, !llvm.loop !22

._crit_edge90:                                    ; preds = %._crit_edge, %.lr.ph89.split.us, %1
  ret void
}